target datalayout = "e-m:e-p270:32:32-p271:32:32-p272:64:64-i64:64-i128:128-f80:128-n8:16:32:64-S128"
target triple = "x86_64-pc-linux-gnu"

; Function Attrs: nounwind uwtable
define hidden void @freeNativeStringArray(ptr noundef %0, i32 noundef %1) #0 {
  %3 = alloca ptr, align 8
  %4 = alloca i32, align 4
  %5 = alloca i32, align 4
  store ptr %0, ptr %3, align 8
  store i32 %1, ptr %4, align 4
  %6 = load ptr, ptr %3, align 8
  %7 = icmp eq ptr %6, null
  br i1 %7, label %8, label %9

8:                                                ; preds = %2
  br label %25

9:                                                ; preds = %2
  store i32 0, ptr %5, align 4
  br label %10

10:                                               ; preds = %20, %9
  %11 = load i32, ptr %5, align 4
  %12 = load i32, ptr %4, align 4
  %13 = icmp slt i32 %11, %12
  br i1 %13, label %14, label %23

14:                                               ; preds = %10
  %15 = load ptr, ptr %3, align 8
  %16 = load i32, ptr %5, align 4
  %17 = sext i32 %16 to i64
  %18 = getelementptr inbounds ptr, ptr %15, i64 %17
  %19 = load ptr, ptr %18, align 8
  call void @free(ptr noundef %19) #8
  br label %20

20:                                               ; preds = %14
  %21 = load i32, ptr %5, align 4
  %22 = add nsw i32 %21, 1
  store i32 %22, ptr %5, align 4
  br label %10, !llvm.loop !6

23:                                               ; preds = %10
  %24 = load ptr, ptr %3, align 8
  call void @free(ptr noundef %24) #8
  br label %25

25:                                               ; preds = %23, %8
  ret void
}

; Function Attrs: nounwind uwtable
define i32 @Java_sun_awt_X11_XlibWrapper_XInternAtoms(ptr noundef %0, ptr noundef %1, i64 noundef %2, ptr noundef %3, i8 noundef zeroext %4, i64 noundef %5) #0 {
  %7 = alloca ptr, align 8
  %8 = alloca ptr, align 8
  %9 = alloca i64, align 8
  %10 = alloca ptr, align 8
  %11 = alloca i8, align 1
  %12 = alloca i64, align 8
  %13 = alloca i32, align 4
  %14 = alloca i32, align 4
  %15 = alloca ptr, align 8
  store ptr %0, ptr %7, align 8
  store ptr %1, ptr %8, align 8
  store i64 %2, ptr %9, align 8
  store ptr %3, ptr %10, align 8
  store i8 %4, ptr %11, align 1
  store i64 %5, ptr %12, align 8
  store i32 0, ptr %13, align 4
  %16 = load ptr, ptr %7, align 8
  %17 = load ptr, ptr %10, align 8
  %18 = call ptr @stringArrayToNative(ptr noundef %16, ptr noundef %17, ptr noundef %14)
  store ptr %18, ptr %15, align 8
  %19 = load ptr, ptr %15, align 8
  %20 = icmp ne ptr %19, null
  br i1 %20, label %21, label %33

21:                                               ; preds = %6
  %22 = load i64, ptr %9, align 8
  %23 = inttoptr i64 %22 to ptr
  %24 = load ptr, ptr %15, align 8
  %25 = load i32, ptr %14, align 4
  %26 = load i8, ptr %11, align 1
  %27 = zext i8 %26 to i32
  %28 = load i64, ptr %12, align 8
  %29 = inttoptr i64 %28 to ptr
  %30 = call i32 @XInternAtoms(ptr noundef %23, ptr noundef %24, i32 noundef %25, i32 noundef %27, ptr noundef %29)
  store i32 %30, ptr %13, align 4
  %31 = load ptr, ptr %15, align 8
  %32 = load i32, ptr %14, align 4
  call void @freeNativeStringArray(ptr noundef %31, i32 noundef %32)
  br label %33

33:                                               ; preds = %21, %6
  %34 = load i32, ptr %13, align 4
  ret i32 %34
}