; Function Attrs: nounwind uwtable
define i32 @Java_sun_awt_X11_XlibWrapper_XInternAtoms(ptr noundef %0, ptr nocapture noundef readnone %1, i64 noundef %2, ptr noundef %3, i8 noundef zeroext %4, i64 noundef %5) local_unnamed_addr #0 {
  %7 = alloca i32, align 4
  %8 = call ptr @stringArrayToNative(ptr noundef %0, ptr noundef %3, ptr noundef nonnull %7)
  %.not = icmp eq ptr %8, null
  br i1 %.not, label %17, label %.preheader.i

.preheader.i:                                     ; preds = %6
  %9 = inttoptr i64 %2 to ptr
  %10 = load i32, ptr %7, align 4
  %11 = zext i8 %4 to i32
  %12 = inttoptr i64 %5 to ptr
  %13 = tail call i32 @XInternAtoms(ptr noundef %9, ptr noundef nonnull %8, i32 noundef %10, i32 noundef %11, ptr noundef %12) #14
  %14 = icmp sgt i32 %10, 0
  br i1 %14, label %.lr.ph.preheader.i, label %freeNativeStringArray.exit

.lr.ph.preheader.i:                               ; preds = %.preheader.i
  %wide.trip.count.i = zext nneg i32 %10 to i64
  br label %.lr.ph.i

.lr.ph.i:                                         ; preds = %.lr.ph.i, %.lr.ph.preheader.i
  %indvars.iv.i = phi i64 [ 0, %.lr.ph.preheader.i ], [ %indvars.iv.next.i, %.lr.ph.i ]
  %15 = getelementptr inbounds ptr, ptr %8, i64 %indvars.iv.i
  %16 = load ptr, ptr %15, align 8
  tail call void @free(ptr noundef %16) #14
  %indvars.iv.next.i = add nuw nsw i64 %indvars.iv.i, 1
  %exitcond.not.i = icmp eq i64 %indvars.iv.next.i, %wide.trip.count.i
  br i1 %exitcond.not.i, label %freeNativeStringArray.exit, label %.lr.ph.i, !llvm.loop !6

freeNativeStringArray.exit:                       ; preds = %.lr.ph.i, %.preheader.i
  tail call void @free(ptr noundef nonnull %8) #14
  br label %17

17:                                               ; preds = %freeNativeStringArray.exit, %6
  %.0 = phi i32 [ %13, %freeNativeStringArray.exit ], [ 0, %6 ]
  ret i32 %.0
}